; Function Attrs: nounwind sspstrong uwtable
define internal range(i64 1, 4294967296) i64 @ossl_ocspsres_get_cert_status(i64 noundef %0) #0 {
  %2 = tail call ptr @rb_check_typeddata(i64 noundef %0, ptr noundef nonnull @ossl_ocsp_singleresp_type) #5
  %.not = icmp eq ptr %2, null
  br i1 %.not, label %3, label %5

3:                                                ; preds = %1
  %4 = load i64, ptr @rb_eRuntimeError, align 8, !tbaa !6
  tail call void (i64, ptr, ...) @ossl_raise(i64 noundef %4, ptr noundef nonnull @.str.87) #6
  unreachable

5:                                                ; preds = %1
  %6 = tail call i32 @OCSP_single_get0_status(ptr noundef nonnull %2, ptr noundef null, ptr noundef null, ptr noundef null, ptr noundef null) #5
  %7 = icmp slt i32 %6, 0
  br i1 %7, label %8, label %10

8:                                                ; preds = %5
  %9 = load i64, ptr @eOCSPError, align 8, !tbaa !6
  tail call void (i64, ptr, ...) @ossl_raise(i64 noundef %9, ptr noundef nonnull @.str.91) #6
  unreachable

10:                                               ; preds = %5
  %11 = shl nuw i32 %6, 1
  %12 = or disjoint i32 %11, 1
  %13 = zext i32 %12 to i64
  ret i64 %13
}